target datalayout = "e-m:e-p270:32:32-p271:32:32-p272:64:64-i64:64-i128:128-f80:128-n8:16:32:64-S128"
target triple = "x86_64-pc-linux-gnu"

%struct.CONF_VALUE = type { ptr, ptr, ptr }

@.str.1 = private unnamed_addr constant [31 x i8] c"../openssl/crypto/ts/ts_conf.c\00", align 1
@.str.14 = private unnamed_addr constant [15 x i8] c"other_policies\00", align 1
@.str.26 = private unnamed_addr constant [7 x i8] c"%s::%s\00", align 1
@__func__.ts_CONF_invalid = private unnamed_addr constant [16 x i8] c"ts_CONF_invalid\00", align 1

; Function Attrs: inlinehint nounwind uwtable
define internal ptr @ossl_check_CONF_VALUE_freefunc_type(ptr noundef %0) #3 {
  %2 = alloca ptr, align 8
  store ptr %0, ptr %2, align 8, !tbaa !28
  %3 = load ptr, ptr %2, align 8, !tbaa !28
  ret ptr %3
}

; Function Attrs: inlinehint nounwind uwtable
define internal ptr @ossl_check_CONF_VALUE_sk_type(ptr noundef %0) #3 {
  %2 = alloca ptr, align 8
  store ptr %0, ptr %2, align 8, !tbaa !41
  %3 = load ptr, ptr %2, align 8, !tbaa !41
  ret ptr %3
}

; Function Attrs: inlinehint nounwind uwtable
define internal ptr @ossl_check_const_CONF_VALUE_sk_type(ptr noundef %0) #3 {
  %2 = alloca ptr, align 8
  store ptr %0, ptr %2, align 8, !tbaa !41
  %3 = load ptr, ptr %2, align 8, !tbaa !41
  ret ptr %3
}

; Function Attrs: nounwind uwtable
define internal void @ts_CONF_invalid(ptr noundef %0, ptr noundef %1) #0 {
  %3 = alloca ptr, align 8
  %4 = alloca ptr, align 8
  store ptr %0, ptr %3, align 8, !tbaa !3
  store ptr %1, ptr %4, align 8, !tbaa !3
  call void @ERR_new()
  call void @ERR_set_debug(ptr noundef @.str.1, i32 noundef 132, ptr noundef @__func__.ts_CONF_invalid)
  %5 = load ptr, ptr %3, align 8, !tbaa !3
  %6 = load ptr, ptr %4, align 8, !tbaa !3
  call void (i32, i32, ptr, ...) @ERR_set_error(i32 noundef 47, i32 noundef 135, ptr noundef @.str.26, ptr noundef %5, ptr noundef %6)
  ret void
}

; Function Attrs: nounwind uwtable
define i32 @TS_CONF_set_policies(ptr noundef %0, ptr noundef %1, ptr noundef %2) #0 {
  %4 = alloca i32, align 4
  %5 = alloca ptr, align 8
  %6 = alloca ptr, align 8
  %7 = alloca ptr, align 8
  %8 = alloca i32, align 4
  %9 = alloca i32, align 4
  %10 = alloca ptr, align 8
  %11 = alloca ptr, align 8
  %12 = alloca ptr, align 8
  %13 = alloca ptr, align 8
  %14 = alloca ptr, align 8
  %15 = alloca i32, align 4
  store ptr %0, ptr %5, align 8, !tbaa !31
  store ptr %1, ptr %6, align 8, !tbaa !3
  store ptr %2, ptr %7, align 8, !tbaa !33
  call void @llvm.lifetime.start.p0(i64 4, ptr %8) #7
  store i32 0, ptr %8, align 4, !tbaa !16
  call void @llvm.lifetime.start.p0(i64 4, ptr %9) #7
  call void @llvm.lifetime.start.p0(i64 8, ptr %10) #7
  store ptr null, ptr %10, align 8, !tbaa !41
  call void @llvm.lifetime.start.p0(i64 8, ptr %11) #7
  %16 = load ptr, ptr %5, align 8, !tbaa !31
  %17 = load ptr, ptr %6, align 8, !tbaa !3
  %18 = call ptr @NCONF_get_string(ptr noundef %16, ptr noundef %17, ptr noundef @.str.14)
  store ptr %18, ptr %11, align 8, !tbaa !3
  %19 = load ptr, ptr %11, align 8, !tbaa !3
  %20 = icmp ne ptr %19, null
  br i1 %20, label %21, label %27

21:                                               ; preds = %3
  %22 = load ptr, ptr %11, align 8, !tbaa !3
  %23 = call ptr @X509V3_parse_list(ptr noundef %22)
  store ptr %23, ptr %10, align 8, !tbaa !41
  %24 = icmp eq ptr %23, null
  br i1 %24, label %25, label %27

25:                                               ; preds = %21
  %26 = load ptr, ptr %6, align 8, !tbaa !3
  call void @ts_CONF_invalid(ptr noundef %26, ptr noundef @.str.14)
  br label %73

27:                                               ; preds = %21, %3
  store i32 0, ptr %9, align 4, !tbaa !16
  br label %28

28:                                               ; preds = %69, %27
  %29 = load i32, ptr %9, align 4, !tbaa !16
  %30 = load ptr, ptr %10, align 8, !tbaa !41
  %31 = call ptr @ossl_check_const_CONF_VALUE_sk_type(ptr noundef %30)
  %32 = call i32 @OPENSSL_sk_num(ptr noundef %31)
  %33 = icmp slt i32 %29, %32
  br i1 %33, label %34, label %72

34:                                               ; preds = %28
  call void @llvm.lifetime.start.p0(i64 8, ptr %12) #7
  %35 = load ptr, ptr %10, align 8, !tbaa !41
  %36 = call ptr @ossl_check_const_CONF_VALUE_sk_type(ptr noundef %35)
  %37 = load i32, ptr %9, align 4, !tbaa !16
  %38 = call ptr @OPENSSL_sk_value(ptr noundef %36, i32 noundef %37)
  store ptr %38, ptr %12, align 8, !tbaa !28
  call void @llvm.lifetime.start.p0(i64 8, ptr %13) #7
  %39 = load ptr, ptr %12, align 8, !tbaa !28
  %40 = getelementptr inbounds nuw %struct.CONF_VALUE, ptr %39, i32 0, i32 2
  %41 = load ptr, ptr %40, align 8, !tbaa !43
  %42 = icmp ne ptr %41, null
  br i1 %42, label %43, label %47

43:                                               ; preds = %34
  %44 = load ptr, ptr %12, align 8, !tbaa !28
  %45 = getelementptr inbounds nuw %struct.CONF_VALUE, ptr %44, i32 0, i32 2
  %46 = load ptr, ptr %45, align 8, !tbaa !43
  br label %51

47:                                               ; preds = %34
  %48 = load ptr, ptr %12, align 8, !tbaa !28
  %49 = getelementptr inbounds nuw %struct.CONF_VALUE, ptr %48, i32 0, i32 1
  %50 = load ptr, ptr %49, align 8, !tbaa !45
  br label %51

51:                                               ; preds = %47, %43
  %52 = phi ptr [ %46, %43 ], [ %50, %47 ]
  store ptr %52, ptr %13, align 8, !tbaa !3
  call void @llvm.lifetime.start.p0(i64 8, ptr %14) #7
  %53 = load ptr, ptr %13, align 8, !tbaa !3
  %54 = call ptr @OBJ_txt2obj(ptr noundef %53, i32 noundef 0)
  store ptr %54, ptr %14, align 8, !tbaa !39
  %55 = icmp eq ptr %54, null
  br i1 %55, label %56, label %58

56:                                               ; preds = %51
  %57 = load ptr, ptr %6, align 8, !tbaa !3
  call void @ts_CONF_invalid(ptr noundef %57, ptr noundef @.str.14)
  store i32 2, ptr %15, align 4
  br label %66

58:                                               ; preds = %51
  %59 = load ptr, ptr %7, align 8, !tbaa !33
  %60 = load ptr, ptr %14, align 8, !tbaa !39
  %61 = call i32 @TS_RESP_CTX_add_policy(ptr noundef %59, ptr noundef %60)
  %62 = icmp ne i32 %61, 0
  br i1 %62, label %64, label %63

63:                                               ; preds = %58
  store i32 2, ptr %15, align 4
  br label %66

64:                                               ; preds = %58
  %65 = load ptr, ptr %14, align 8, !tbaa !39
  call void @ASN1_OBJECT_free(ptr noundef %65)
  store i32 0, ptr %15, align 4
  br label %66

66:                                               ; preds = %63, %56, %64
  call void @llvm.lifetime.end.p0(i64 8, ptr %14) #7
  call void @llvm.lifetime.end.p0(i64 8, ptr %13) #7
  call void @llvm.lifetime.end.p0(i64 8, ptr %12) #7
  %67 = load i32, ptr %15, align 4
  switch i32 %67, label %78 [
    i32 0, label %68
    i32 2, label %73
  ]

68:                                               ; preds = %66
  br label %69

69:                                               ; preds = %68
  %70 = load i32, ptr %9, align 4, !tbaa !16
  %71 = add nsw i32 %70, 1
  store i32 %71, ptr %9, align 4, !tbaa !16
  br label %28, !llvm.loop !46

72:                                               ; preds = %28
  store i32 1, ptr %8, align 4, !tbaa !16
  br label %73

73:                                               ; preds = %72, %66, %25
  %74 = load ptr, ptr %10, align 8, !tbaa !41
  %75 = call ptr @ossl_check_CONF_VALUE_sk_type(ptr noundef %74)
  %76 = call ptr @ossl_check_CONF_VALUE_freefunc_type(ptr noundef @X509V3_conf_free)
  call void @OPENSSL_sk_pop_free(ptr noundef %75, ptr noundef %76)
  %77 = load i32, ptr %8, align 4, !tbaa !16
  store i32 %77, ptr %4, align 4
  store i32 1, ptr %15, align 4
  br label %78

78:                                               ; preds = %73, %66
  call void @llvm.lifetime.end.p0(i64 8, ptr %11) #7
  call void @llvm.lifetime.end.p0(i64 8, ptr %10) #7
  call void @llvm.lifetime.end.p0(i64 4, ptr %9) #7
  call void @llvm.lifetime.end.p0(i64 4, ptr %8) #7
  %79 = load i32, ptr %4, align 4
  ret i32 %79
}