; Function Attrs: nounwind uwtable
define range(i32 0, 2) i32 @TS_CONF_set_policies(ptr noundef %0, ptr noundef %1, ptr noundef %2) local_unnamed_addr #0 {
  %4 = tail call ptr @NCONF_get_string(ptr noundef %0, ptr noundef %1, ptr noundef nonnull @.str.14) #4
  %.not = icmp eq ptr %4, null
  br i1 %.not, label %8, label %5

5:                                                ; preds = %3
  %6 = tail call ptr @X509V3_parse_list(ptr noundef nonnull %4) #4
  %7 = icmp eq ptr %6, null
  br i1 %7, label %.thread.sink.split, label %8

8:                                                ; preds = %5, %3
  %.024 = phi ptr [ %6, %5 ], [ null, %3 ]
  %9 = tail call i32 @OPENSSL_sk_num(ptr noundef %.024) #4
  %10 = icmp sgt i32 %9, 0
  br i1 %10, label %.lr.ph, label %.thread

.lr.ph:                                           ; preds = %8, %23
  %.02335 = phi i32 [ %24, %23 ], [ 0, %8 ]
  %11 = tail call ptr @OPENSSL_sk_value(ptr noundef %.024, i32 noundef %.02335) #4
  %12 = getelementptr inbounds nuw i8, ptr %11, i64 16
  %13 = load ptr, ptr %12, align 8, !tbaa !17
  %.not30 = icmp eq ptr %13, null
  br i1 %.not30, label %14, label %17

14:                                               ; preds = %.lr.ph
  %15 = getelementptr inbounds nuw i8, ptr %11, i64 8
  %16 = load ptr, ptr %15, align 8, !tbaa !19
  br label %17

17:                                               ; preds = %.lr.ph, %14
  %18 = phi ptr [ %16, %14 ], [ %13, %.lr.ph ]
  %19 = tail call ptr @OBJ_txt2obj(ptr noundef %18, i32 noundef 0) #4
  %20 = icmp eq ptr %19, null
  br i1 %20, label %.thread.sink.split, label %21

21:                                               ; preds = %17
  %22 = tail call i32 @TS_RESP_CTX_add_policy(ptr noundef %2, ptr noundef nonnull %19) #4
  %.not31 = icmp eq i32 %22, 0
  br i1 %.not31, label %.thread, label %23

23:                                               ; preds = %21
  tail call void @ASN1_OBJECT_free(ptr noundef nonnull %19) #4
  %24 = add nuw nsw i32 %.02335, 1
  %25 = tail call i32 @OPENSSL_sk_num(ptr noundef %.024) #4
  %26 = icmp slt i32 %24, %25
  br i1 %26, label %.lr.ph, label %.thread, !llvm.loop !20

.thread.sink.split:                               ; preds = %17, %5
  %.1.ph = phi ptr [ null, %5 ], [ %.024, %17 ]
  tail call void @ERR_new() #4
  tail call void @ERR_set_debug(ptr noundef nonnull @.str.1, i32 noundef 132, ptr noundef nonnull @__func__.ts_CONF_invalid) #4
  tail call void (i32, i32, ptr, ...) @ERR_set_error(i32 noundef 47, i32 noundef 135, ptr noundef nonnull @.str.26, ptr noundef %1, ptr noundef nonnull @.str.14) #4
  br label %.thread

.thread:                                          ; preds = %23, %21, %.thread.sink.split, %8
  %.1 = phi ptr [ %.024, %8 ], [ %.1.ph, %.thread.sink.split ], [ %.024, %21 ], [ %.024, %23 ]
  %.022 = phi i32 [ 1, %8 ], [ 0, %.thread.sink.split ], [ 1, %23 ], [ 0, %21 ]
  tail call void @OPENSSL_sk_pop_free(ptr noundef %.1, ptr noundef nonnull @X509V3_conf_free) #4
  ret i32 %.022
}